; Function Attrs: mustprogress uwtable
define internal fastcc void @_ZN9grpc_core12_GLOBAL__N_120ListenerResourceNameB5cxx11ESt17basic_string_viewIcSt11char_traitsIcEES4_(ptr noalias align 8 %agg.result, i64 %resource_name_template.coerce0, ptr %resource_name_template.coerce1, i64 %listening_address.coerce0, ptr %listening_address.coerce1) unnamed_addr #4 personality ptr @__gxx_personality_v0 {
entry:
  %tmp = alloca %"class.std::__cxx11::basic_string", align 8
  %ref.tmp = alloca %"class.std::__cxx11::basic_string", align 8
  %ref.tmp8 = alloca [1 x %"struct.std::pair.953"], align 8
  call void @_ZNSt7__cxx1112basic_stringIcSt11char_traitsIcESaIcEEC1Ev(ptr noundef nonnull align 8 dereferenceable(32) %tmp) #26
  %cmp.not.i = icmp ult i64 %resource_name_template.coerce0, 6
  br i1 %cmp.not.i, label %if.end, label %_ZN4absl12lts_2023080210StartsWithESt17basic_string_viewIcSt11char_traitsIcEES4_.exit

_ZN4absl12lts_2023080210StartsWithESt17basic_string_viewIcSt11char_traitsIcEES4_.exit: ; preds = %entry
  %bcmp.i = call i32 @bcmp(ptr noundef nonnull dereferenceable(6) %resource_name_template.coerce1, ptr noundef nonnull dereferenceable(6) @.str.61, i64 6)
  %cmp7.i = icmp eq i32 %bcmp.i, 0
  br i1 %cmp7.i, label %if.then, label %if.end

if.then:                                          ; preds = %_ZN4absl12lts_2023080210StartsWithESt17basic_string_viewIcSt11char_traitsIcEES4_.exit
  invoke void @_ZN9grpc_core3URI17PercentEncodePathB5cxx11ESt17basic_string_viewIcSt11char_traitsIcEE(ptr nonnull sret(%"class.std::__cxx11::basic_string") align 8 %ref.tmp, i64 %listening_address.coerce0, ptr %listening_address.coerce1)
          to label %invoke.cont unwind label %lpad

invoke.cont:                                      ; preds = %if.then
  %call3 = call noundef nonnull align 8 dereferenceable(32) ptr @_ZNSt7__cxx1112basic_stringIcSt11char_traitsIcESaIcEEaSEOS4_(ptr noundef nonnull align 8 dereferenceable(32) %tmp, ptr noundef nonnull align 8 dereferenceable(32) %ref.tmp) #26
  call void @_ZNSt7__cxx1112basic_stringIcSt11char_traitsIcESaIcEED1Ev(ptr noundef nonnull align 8 dereferenceable(32) %ref.tmp) #26
  %call5 = call { i64, ptr } @_ZNKSt7__cxx1112basic_stringIcSt11char_traitsIcESaIcEEcvSt17basic_string_viewIcS2_EEv(ptr noundef nonnull align 8 dereferenceable(32) %tmp) #26
  %0 = extractvalue { i64, ptr } %call5, 0
  %1 = extractvalue { i64, ptr } %call5, 1
  br label %if.end

lpad:                                             ; preds = %if.end, %if.then
  %2 = landingpad { ptr, i32 }
          cleanup
  call void @_ZNSt7__cxx1112basic_stringIcSt11char_traitsIcESaIcEED1Ev(ptr noundef nonnull align 8 dereferenceable(32) %tmp) #26
  resume { ptr, i32 } %2

if.end:                                           ; preds = %entry, %invoke.cont, %_ZN4absl12lts_2023080210StartsWithESt17basic_string_viewIcSt11char_traitsIcEES4_.exit
  %listening_address.sroa.0.0 = phi i64 [ %0, %invoke.cont ], [ %listening_address.coerce0, %_ZN4absl12lts_2023080210StartsWithESt17basic_string_viewIcSt11char_traitsIcEES4_.exit ], [ %listening_address.coerce0, %entry ]
  %listening_address.sroa.4.0 = phi ptr [ %1, %invoke.cont ], [ %listening_address.coerce1, %_ZN4absl12lts_2023080210StartsWithESt17basic_string_viewIcSt11char_traitsIcEES4_.exit ], [ %listening_address.coerce1, %entry ]
  store i64 2, ptr %ref.tmp8, align 8
  %_M_str.i.i = getelementptr inbounds i8, ptr %ref.tmp8, i64 8
  store ptr @.str.62, ptr %_M_str.i.i, align 8
  %second.i = getelementptr inbounds i8, ptr %ref.tmp8, i64 16
  store i64 %listening_address.sroa.0.0, ptr %second.i, align 8
  %listening_address.sroa.4.0.second.i.sroa_idx = getelementptr inbounds i8, ptr %ref.tmp8, i64 24
  store ptr %listening_address.sroa.4.0, ptr %listening_address.sroa.4.0.second.i.sroa_idx, align 8
  invoke void @_ZN4absl12lts_2023080213StrReplaceAllB5cxx11ESt17basic_string_viewIcSt11char_traitsIcEESt16initializer_listISt4pairIS4_S4_EE(ptr sret(%"class.std::__cxx11::basic_string") align 8 %agg.result, i64 %resource_name_template.coerce0, ptr %resource_name_template.coerce1, ptr nonnull %ref.tmp8, i64 1)
          to label %invoke.cont10 unwind label %lpad

invoke.cont10:                                    ; preds = %if.end
  call void @_ZNSt7__cxx1112basic_stringIcSt11char_traitsIcESaIcEED1Ev(ptr noundef nonnull align 8 dereferenceable(32) %tmp) #26
  ret void
}